target datalayout = "e-m:e-p270:32:32-p271:32:32-p272:64:64-i64:64-i128:128-f80:128-n8:16:32:64-S128"
target triple = "x86_64-pc-linux-gnu"

%struct.PJconsts = type { ptr, ptr, ptr, ptr, ptr, ptr, ptr, ptr, ptr, ptr, ptr, ptr, i32, ptr, ptr, ptr, ptr, ptr, ptr, ptr, ptr, double, double, double, double, double, double, double, double, double, double, double, double, double, double, double, double, double, double, double, double, double, double, i32, i32, i32, i32, i32, i32, i32, i32, i32, i32, i32, ptr, ptr, ptr, ptr, ptr, ptr, double, double, double, double, double, double, double, double, double, double, double, i32, [7 x double], i32, ptr, ptr, double, double, i32, [4 x i8], %"class.std::shared_ptr", i8, double, i8, %"class.std::__cxx11::basic_string", %"class.std::__cxx11::basic_string", %"class.std::__cxx11::basic_string", i8, %"class.std::vector", i32, %"class.std::vector.3", i32, i8, i8, i8, ptr }
%"class.std::shared_ptr" = type { %"class.std::__shared_ptr" }
%"class.std::__shared_ptr" = type { ptr, %"class.std::__shared_count" }
%"class.std::__shared_count" = type { ptr }
%"class.std::__cxx11::basic_string" = type { %"struct.std::__cxx11::basic_string<char>::_Alloc_hider", i64, %union.anon }
%"struct.std::__cxx11::basic_string<char>::_Alloc_hider" = type { ptr }
%union.anon = type { i64, [8 x i8] }
%"class.std::vector" = type { %"struct.std::_Vector_base" }
%"struct.std::_Vector_base" = type { %"struct.std::_Vector_base<osgeo::proj::operation::GridDescription, std::allocator<osgeo::proj::operation::GridDescription>>::_Vector_impl" }
%"struct.std::_Vector_base<osgeo::proj::operation::GridDescription, std::allocator<osgeo::proj::operation::GridDescription>>::_Vector_impl" = type { %"struct.std::_Vector_base<osgeo::proj::operation::GridDescription, std::allocator<osgeo::proj::operation::GridDescription>>::_Vector_impl_data" }
%"struct.std::_Vector_base<osgeo::proj::operation::GridDescription, std::allocator<osgeo::proj::operation::GridDescription>>::_Vector_impl_data" = type { ptr, ptr, ptr }
%"class.std::vector.3" = type { %"struct.std::_Vector_base.4" }
%"struct.std::_Vector_base.4" = type { %"struct.std::_Vector_base<PJCoordOperation, std::allocator<PJCoordOperation>>::_Vector_impl" }
%"struct.std::_Vector_base<PJCoordOperation, std::allocator<PJCoordOperation>>::_Vector_impl" = type { %"struct.std::_Vector_base<PJCoordOperation, std::allocator<PJCoordOperation>>::_Vector_impl_data" }
%"struct.std::_Vector_base<PJCoordOperation, std::allocator<PJCoordOperation>>::_Vector_impl_data" = type { ptr, ptr, ptr }
%union.PROJVALUE = type { double }
%"struct.(anonymous namespace)::pq_hammer" = type { double, double, double }

@.str.1 = private unnamed_addr constant [3 x i8] c"tW\00", align 1
@.str.2 = private unnamed_addr constant [3 x i8] c"dW\00", align 1
@.str.3 = private unnamed_addr constant [38 x i8] c"Invalid value for W: it should be > 0\00", align 1
@.str.4 = private unnamed_addr constant [3 x i8] c"tM\00", align 1
@.str.5 = private unnamed_addr constant [3 x i8] c"dM\00", align 1
@.str.6 = private unnamed_addr constant [38 x i8] c"Invalid value for M: it should be > 0\00", align 1

; Function Attrs: mustprogress uwtable
define hidden noundef ptr @_Z35pj_projection_specific_setup_hammerP8PJconsts(ptr noundef %0) #0 {
  %2 = alloca ptr, align 8
  %3 = alloca ptr, align 8
  %4 = alloca ptr, align 8
  %5 = alloca i32, align 4
  %6 = alloca %union.PROJVALUE, align 8
  %7 = alloca %union.PROJVALUE, align 8
  %8 = alloca %union.PROJVALUE, align 8
  %9 = alloca %union.PROJVALUE, align 8
  store ptr %0, ptr %3, align 8, !tbaa !3
  call void @llvm.lifetime.start.p0(i64 8, ptr %4) #8
  %10 = call noalias ptr @calloc(i64 noundef 1, i64 noundef 24) #9
  store ptr %10, ptr %4, align 8, !tbaa !41
  %11 = load ptr, ptr %4, align 8, !tbaa !41
  %12 = icmp eq ptr null, %11
  br i1 %12, label %13, label %16

13:                                               ; preds = %1
  %14 = load ptr, ptr %3, align 8, !tbaa !3
  %15 = call noundef ptr @_Z21pj_default_destructorP8PJconstsi(ptr noundef %14, i32 noundef 4096)
  store ptr %15, ptr %2, align 8
  store i32 1, ptr %5, align 4
  br label %112

16:                                               ; preds = %1
  %17 = load ptr, ptr %4, align 8, !tbaa !41
  %18 = load ptr, ptr %3, align 8, !tbaa !3
  %19 = getelementptr inbounds nuw %struct.PJconsts, ptr %18, i32 0, i32 11
  store ptr %17, ptr %19, align 8, !tbaa !43
  call void @llvm.lifetime.start.p0(i64 8, ptr %6) #8
  %20 = load ptr, ptr %3, align 8, !tbaa !3
  %21 = getelementptr inbounds nuw %struct.PJconsts, ptr %20, i32 0, i32 0
  %22 = load ptr, ptr %21, align 8, !tbaa !44
  %23 = load ptr, ptr %3, align 8, !tbaa !3
  %24 = getelementptr inbounds nuw %struct.PJconsts, ptr %23, i32 0, i32 3
  %25 = load ptr, ptr %24, align 8, !tbaa !45
  %26 = call i64 @_Z8pj_paramP6pj_ctxP8ARG_listPKc(ptr noundef %22, ptr noundef %25, ptr noundef @.str.1)
  %27 = getelementptr inbounds nuw %union.PROJVALUE, ptr %6, i32 0, i32 0
  store i64 %26, ptr %27, align 8
  %28 = load i32, ptr %6, align 8, !tbaa !46
  %29 = icmp ne i32 %28, 0
  call void @llvm.lifetime.end.p0(i64 8, ptr %6) #8
  br i1 %29, label %30, label %52

30:                                               ; preds = %16
  call void @llvm.lifetime.start.p0(i64 8, ptr %7) #8
  %31 = load ptr, ptr %3, align 8, !tbaa !3
  %32 = getelementptr inbounds nuw %struct.PJconsts, ptr %31, i32 0, i32 0
  %33 = load ptr, ptr %32, align 8, !tbaa !44
  %34 = load ptr, ptr %3, align 8, !tbaa !3
  %35 = getelementptr inbounds nuw %struct.PJconsts, ptr %34, i32 0, i32 3
  %36 = load ptr, ptr %35, align 8, !tbaa !45
  %37 = call i64 @_Z8pj_paramP6pj_ctxP8ARG_listPKc(ptr noundef %33, ptr noundef %36, ptr noundef @.str.2)
  %38 = getelementptr inbounds nuw %union.PROJVALUE, ptr %7, i32 0, i32 0
  store i64 %37, ptr %38, align 8
  %39 = load double, ptr %7, align 8, !tbaa !46
  %40 = call double @llvm.fabs.f64(double %39)
  %41 = load ptr, ptr %4, align 8, !tbaa !41
  %42 = getelementptr inbounds nuw %"struct.(anonymous namespace)::pq_hammer", ptr %41, i32 0, i32 0
  store double %40, ptr %42, align 8, !tbaa !47
  call void @llvm.lifetime.end.p0(i64 8, ptr %7) #8
  %43 = load ptr, ptr %4, align 8, !tbaa !41
  %44 = getelementptr inbounds nuw %"struct.(anonymous namespace)::pq_hammer", ptr %43, i32 0, i32 0
  %45 = load double, ptr %44, align 8, !tbaa !47
  %46 = fcmp ole double %45, 0.000000e+00
  br i1 %46, label %47, label %51

47:                                               ; preds = %30
  %48 = load ptr, ptr %3, align 8, !tbaa !3
  call void (ptr, ptr, ...) @_Z14proj_log_errorPK8PJconstsPKcz(ptr noundef %48, ptr noundef @.str.3)
  %49 = load ptr, ptr %3, align 8, !tbaa !3
  %50 = call noundef ptr @_Z21pj_default_destructorP8PJconstsi(ptr noundef %49, i32 noundef 1027)
  store ptr %50, ptr %2, align 8
  store i32 1, ptr %5, align 4
  br label %112

51:                                               ; preds = %30
  br label %55

52:                                               ; preds = %16
  %53 = load ptr, ptr %4, align 8, !tbaa !41
  %54 = getelementptr inbounds nuw %"struct.(anonymous namespace)::pq_hammer", ptr %53, i32 0, i32 0
  store double 5.000000e-01, ptr %54, align 8, !tbaa !47
  br label %55

55:                                               ; preds = %52, %51
  call void @llvm.lifetime.start.p0(i64 8, ptr %8) #8
  %56 = load ptr, ptr %3, align 8, !tbaa !3
  %57 = getelementptr inbounds nuw %struct.PJconsts, ptr %56, i32 0, i32 0
  %58 = load ptr, ptr %57, align 8, !tbaa !44
  %59 = load ptr, ptr %3, align 8, !tbaa !3
  %60 = getelementptr inbounds nuw %struct.PJconsts, ptr %59, i32 0, i32 3
  %61 = load ptr, ptr %60, align 8, !tbaa !45
  %62 = call i64 @_Z8pj_paramP6pj_ctxP8ARG_listPKc(ptr noundef %58, ptr noundef %61, ptr noundef @.str.4)
  %63 = getelementptr inbounds nuw %union.PROJVALUE, ptr %8, i32 0, i32 0
  store i64 %62, ptr %63, align 8
  %64 = load i32, ptr %8, align 8, !tbaa !46
  %65 = icmp ne i32 %64, 0
  call void @llvm.lifetime.end.p0(i64 8, ptr %8) #8
  br i1 %65, label %66, label %88

66:                                               ; preds = %55
  call void @llvm.lifetime.start.p0(i64 8, ptr %9) #8
  %67 = load ptr, ptr %3, align 8, !tbaa !3
  %68 = getelementptr inbounds nuw %struct.PJconsts, ptr %67, i32 0, i32 0
  %69 = load ptr, ptr %68, align 8, !tbaa !44
  %70 = load ptr, ptr %3, align 8, !tbaa !3
  %71 = getelementptr inbounds nuw %struct.PJconsts, ptr %70, i32 0, i32 3
  %72 = load ptr, ptr %71, align 8, !tbaa !45
  %73 = call i64 @_Z8pj_paramP6pj_ctxP8ARG_listPKc(ptr noundef %69, ptr noundef %72, ptr noundef @.str.5)
  %74 = getelementptr inbounds nuw %union.PROJVALUE, ptr %9, i32 0, i32 0
  store i64 %73, ptr %74, align 8
  %75 = load double, ptr %9, align 8, !tbaa !46
  %76 = call double @llvm.fabs.f64(double %75)
  %77 = load ptr, ptr %4, align 8, !tbaa !41
  %78 = getelementptr inbounds nuw %"struct.(anonymous namespace)::pq_hammer", ptr %77, i32 0, i32 1
  store double %76, ptr %78, align 8, !tbaa !49
  call void @llvm.lifetime.end.p0(i64 8, ptr %9) #8
  %79 = load ptr, ptr %4, align 8, !tbaa !41
  %80 = getelementptr inbounds nuw %"struct.(anonymous namespace)::pq_hammer", ptr %79, i32 0, i32 1
  %81 = load double, ptr %80, align 8, !tbaa !49
  %82 = fcmp ole double %81, 0.000000e+00
  br i1 %82, label %83, label %87

83:                                               ; preds = %66
  %84 = load ptr, ptr %3, align 8, !tbaa !3
  call void (ptr, ptr, ...) @_Z14proj_log_errorPK8PJconstsPKcz(ptr noundef %84, ptr noundef @.str.6)
  %85 = load ptr, ptr %3, align 8, !tbaa !3
  %86 = call noundef ptr @_Z21pj_default_destructorP8PJconstsi(ptr noundef %85, i32 noundef 1027)
  store ptr %86, ptr %2, align 8
  store i32 1, ptr %5, align 4
  br label %112

87:                                               ; preds = %66
  br label %91

88:                                               ; preds = %55
  %89 = load ptr, ptr %4, align 8, !tbaa !41
  %90 = getelementptr inbounds nuw %"struct.(anonymous namespace)::pq_hammer", ptr %89, i32 0, i32 1
  store double 1.000000e+00, ptr %90, align 8, !tbaa !49
  br label %91

91:                                               ; preds = %88, %87
  %92 = load ptr, ptr %4, align 8, !tbaa !41
  %93 = getelementptr inbounds nuw %"struct.(anonymous namespace)::pq_hammer", ptr %92, i32 0, i32 1
  %94 = load double, ptr %93, align 8, !tbaa !49
  %95 = fdiv double 1.000000e+00, %94
  %96 = load ptr, ptr %4, align 8, !tbaa !41
  %97 = getelementptr inbounds nuw %"struct.(anonymous namespace)::pq_hammer", ptr %96, i32 0, i32 2
  store double %95, ptr %97, align 8, !tbaa !50
  %98 = load ptr, ptr %4, align 8, !tbaa !41
  %99 = getelementptr inbounds nuw %"struct.(anonymous namespace)::pq_hammer", ptr %98, i32 0, i32 0
  %100 = load double, ptr %99, align 8, !tbaa !47
  %101 = load ptr, ptr %4, align 8, !tbaa !41
  %102 = getelementptr inbounds nuw %"struct.(anonymous namespace)::pq_hammer", ptr %101, i32 0, i32 1
  %103 = load double, ptr %102, align 8, !tbaa !49
  %104 = fdiv double %103, %100
  store double %104, ptr %102, align 8, !tbaa !49
  %105 = load ptr, ptr %3, align 8, !tbaa !3
  %106 = getelementptr inbounds nuw %struct.PJconsts, ptr %105, i32 0, i32 27
  store double 0.000000e+00, ptr %106, align 8, !tbaa !51
  %107 = load ptr, ptr %3, align 8, !tbaa !3
  %108 = getelementptr inbounds nuw %struct.PJconsts, ptr %107, i32 0, i32 13
  store ptr @_ZL16hammer_s_forward5PJ_LPP8PJconsts, ptr %108, align 8, !tbaa !52
  %109 = load ptr, ptr %3, align 8, !tbaa !3
  %110 = getelementptr inbounds nuw %struct.PJconsts, ptr %109, i32 0, i32 14
  store ptr @_ZL16hammer_s_inverse5PJ_XYP8PJconsts, ptr %110, align 8, !tbaa !53
  %111 = load ptr, ptr %3, align 8, !tbaa !3
  store ptr %111, ptr %2, align 8
  store i32 1, ptr %5, align 4
  br label %112

112:                                              ; preds = %91, %83, %47, %13
  call void @llvm.lifetime.end.p0(i64 8, ptr %4) #8
  %113 = load ptr, ptr %2, align 8
  ret ptr %113
}