; Function Attrs: mustprogress uwtable
define hidden noundef ptr @_Z35pj_projection_specific_setup_hammerP8PJconsts(ptr noundef %0) local_unnamed_addr #0 {
  %2 = tail call noalias dereferenceable_or_null(24) ptr @calloc(i64 noundef 1, i64 noundef 24) #6
  %3 = icmp eq ptr %2, null
  br i1 %3, label %4, label %6

4:                                                ; preds = %1
  %5 = tail call noundef ptr @_Z21pj_default_destructorP8PJconstsi(ptr noundef %0, i32 noundef 4096)
  br label %48

6:                                                ; preds = %1
  %7 = getelementptr inbounds nuw i8, ptr %0, i64 88
  store ptr %2, ptr %7, align 8, !tbaa !40
  %8 = load ptr, ptr %0, align 8, !tbaa !41
  %9 = getelementptr inbounds nuw i8, ptr %0, i64 24
  %10 = load ptr, ptr %9, align 8, !tbaa !42
  %11 = tail call i64 @_Z8pj_paramP6pj_ctxP8ARG_listPKc(ptr noundef %8, ptr noundef %10, ptr noundef nonnull @.str.1)
  %12 = and i64 %11, 4294967295
  %.not = icmp eq i64 %12, 0
  br i1 %.not, label %22, label %13

13:                                               ; preds = %6
  %14 = load ptr, ptr %0, align 8, !tbaa !41
  %15 = load ptr, ptr %9, align 8, !tbaa !42
  %16 = tail call i64 @_Z8pj_paramP6pj_ctxP8ARG_listPKc(ptr noundef %14, ptr noundef %15, ptr noundef nonnull @.str.2)
  %17 = bitcast i64 %16 to double
  %18 = tail call double @llvm.fabs.f64(double %17)
  store double %18, ptr %2, align 8, !tbaa !43
  %19 = fcmp oeq double %17, 0.000000e+00
  br i1 %19, label %20, label %23

20:                                               ; preds = %13
  tail call void (ptr, ptr, ...) @_Z14proj_log_errorPK8PJconstsPKcz(ptr noundef nonnull %0, ptr noundef nonnull @.str.3)
  %21 = tail call noundef ptr @_Z21pj_default_destructorP8PJconstsi(ptr noundef nonnull %0, i32 noundef 1027)
  br label %48

22:                                               ; preds = %6
  store double 5.000000e-01, ptr %2, align 8, !tbaa !43
  br label %23

23:                                               ; preds = %13, %22
  %24 = load ptr, ptr %0, align 8, !tbaa !41
  %25 = load ptr, ptr %9, align 8, !tbaa !42
  %26 = tail call i64 @_Z8pj_paramP6pj_ctxP8ARG_listPKc(ptr noundef %24, ptr noundef %25, ptr noundef nonnull @.str.4)
  %27 = and i64 %26, 4294967295
  %.not36 = icmp eq i64 %27, 0
  br i1 %.not36, label %38, label %28

28:                                               ; preds = %23
  %29 = load ptr, ptr %0, align 8, !tbaa !41
  %30 = load ptr, ptr %9, align 8, !tbaa !42
  %31 = tail call i64 @_Z8pj_paramP6pj_ctxP8ARG_listPKc(ptr noundef %29, ptr noundef %30, ptr noundef nonnull @.str.5)
  %32 = bitcast i64 %31 to double
  %33 = tail call double @llvm.fabs.f64(double %32)
  %34 = getelementptr inbounds nuw i8, ptr %2, i64 8
  store double %33, ptr %34, align 8, !tbaa !45
  %35 = fcmp oeq double %32, 0.000000e+00
  br i1 %35, label %36, label %38

36:                                               ; preds = %28
  tail call void (ptr, ptr, ...) @_Z14proj_log_errorPK8PJconstsPKcz(ptr noundef nonnull %0, ptr noundef nonnull @.str.6)
  %37 = tail call noundef ptr @_Z21pj_default_destructorP8PJconstsi(ptr noundef nonnull %0, i32 noundef 1027)
  br label %48

38:                                               ; preds = %23, %28
  %39 = phi double [ %33, %28 ], [ 1.000000e+00, %23 ]
  %40 = getelementptr inbounds nuw i8, ptr %2, i64 8
  %41 = fdiv double 1.000000e+00, %39
  %42 = getelementptr inbounds nuw i8, ptr %2, i64 16
  store double %41, ptr %42, align 8, !tbaa !46
  %43 = load double, ptr %2, align 8, !tbaa !43
  %44 = fdiv double %39, %43
  store double %44, ptr %40, align 8, !tbaa !45
  %45 = getelementptr inbounds nuw i8, ptr %0, i64 216
  store double 0.000000e+00, ptr %45, align 8, !tbaa !47
  %46 = getelementptr inbounds nuw i8, ptr %0, i64 104
  store ptr @_ZL16hammer_s_forward5PJ_LPP8PJconsts, ptr %46, align 8, !tbaa !48
  %47 = getelementptr inbounds nuw i8, ptr %0, i64 112
  store ptr @_ZL16hammer_s_inverse5PJ_XYP8PJconsts, ptr %47, align 8, !tbaa !49
  br label %48

48:                                               ; preds = %38, %36, %20, %4
  %.0 = phi ptr [ %5, %4 ], [ %21, %20 ], [ %37, %36 ], [ %0, %38 ]
  ret ptr %.0
}